target datalayout = "e-m:e-p270:32:32-p271:32:32-p272:64:64-i64:64-i128:128-f80:128-n8:16:32:64-S128"
target triple = "x86_64-pc-linux-gnu"

@loader_register = internal global ptr null, align 8

; Function Attrs: inlinehint nounwind uwtable
define internal ptr @lh_OSSL_STORE_LOADER_new(ptr noundef %0, ptr noundef %1) #4 {
  %3 = alloca ptr, align 8
  %4 = alloca ptr, align 8
  store ptr %0, ptr %3, align 8, !tbaa !18
  store ptr %1, ptr %4, align 8, !tbaa !18
  %5 = load ptr, ptr %3, align 8, !tbaa !18
  %6 = load ptr, ptr %4, align 8, !tbaa !18
  %7 = call ptr @OPENSSL_LH_new(ptr noundef %5, ptr noundef %6)
  %8 = call ptr @OPENSSL_LH_set_thunks(ptr noundef %7, ptr noundef @lh_OSSL_STORE_LOADER_hfn_thunk, ptr noundef @lh_OSSL_STORE_LOADER_cfn_thunk, ptr noundef @lh_OSSL_STORE_LOADER_doall_thunk, ptr noundef @lh_OSSL_STORE_LOADER_doall_arg_thunk)
  ret ptr %8
}

; Function Attrs: inlinehint nounwind uwtable
define internal void @lh_OSSL_STORE_LOADER_doall_void(ptr noundef %0, ptr noundef %1, ptr noundef %2) #4 {
  %4 = alloca ptr, align 8
  %5 = alloca ptr, align 8
  %6 = alloca ptr, align 8
  store ptr %0, ptr %4, align 8, !tbaa !33
  store ptr %1, ptr %5, align 8, !tbaa !18
  store ptr %2, ptr %6, align 8, !tbaa !18
  %7 = load ptr, ptr %4, align 8, !tbaa !33
  %8 = load ptr, ptr %5, align 8, !tbaa !18
  %9 = load ptr, ptr %6, align 8, !tbaa !18
  call void @OPENSSL_LH_doall_arg_thunk(ptr noundef %7, ptr noundef @lh_OSSL_STORE_LOADER_doall_void_thunk, ptr noundef %8, ptr noundef %9)
  ret void
}

; Function Attrs: nounwind uwtable
define internal i32 @ossl_store_register_init() #0 {
  %1 = load ptr, ptr @loader_register, align 8, !tbaa !33
  %2 = icmp eq ptr %1, null
  br i1 %2, label %3, label %5

3:                                                ; preds = %0
  %4 = call ptr @lh_OSSL_STORE_LOADER_new(ptr noundef @store_loader_hash, ptr noundef @store_loader_cmp)
  store ptr %4, ptr @loader_register, align 8, !tbaa !33
  br label %5

5:                                                ; preds = %3, %0
  %6 = load ptr, ptr @loader_register, align 8, !tbaa !33
  %7 = icmp ne ptr %6, null
  %8 = zext i1 %7 to i32
  ret i32 %8
}

; Function Attrs: nounwind uwtable
define i32 @OSSL_STORE_do_all_loaders(ptr noundef %0, ptr noundef %1) #0 {
  %3 = alloca ptr, align 8
  %4 = alloca ptr, align 8
  store ptr %0, ptr %3, align 8, !tbaa !18
  store ptr %1, ptr %4, align 8, !tbaa !18
  %5 = call i32 @ossl_store_register_init()
  %6 = icmp ne i32 %5, 0
  br i1 %6, label %7, label %11

7:                                                ; preds = %2
  %8 = load ptr, ptr @loader_register, align 8, !tbaa !33
  %9 = load ptr, ptr %3, align 8, !tbaa !18
  %10 = load ptr, ptr %4, align 8, !tbaa !18
  call void @lh_OSSL_STORE_LOADER_doall_void(ptr noundef %8, ptr noundef %9, ptr noundef %10)
  br label %11

11:                                               ; preds = %7, %2
  ret i32 1
}