; Function Attrs: nounwind uwtable
define noundef i32 @OSSL_STORE_do_all_loaders(ptr noundef %0, ptr noundef %1) local_unnamed_addr #0 {
  %3 = load ptr, ptr @loader_register, align 8, !tbaa !28
  %4 = icmp eq ptr %3, null
  br i1 %4, label %ossl_store_register_init.exit, label %ossl_store_register_init.exit.thread

ossl_store_register_init.exit:                    ; preds = %2
  %5 = tail call ptr @OPENSSL_LH_new(ptr noundef nonnull @store_loader_hash, ptr noundef nonnull @store_loader_cmp) #9
  %6 = tail call ptr @OPENSSL_LH_set_thunks(ptr noundef %5, ptr noundef nonnull @lh_OSSL_STORE_LOADER_hfn_thunk, ptr noundef nonnull @lh_OSSL_STORE_LOADER_cfn_thunk, ptr noundef nonnull @lh_OSSL_STORE_LOADER_doall_thunk, ptr noundef nonnull @lh_OSSL_STORE_LOADER_doall_arg_thunk) #9
  store ptr %6, ptr @loader_register, align 8, !tbaa !28
  %.not3 = icmp eq ptr %6, null
  br i1 %.not3, label %8, label %ossl_store_register_init.exit.thread

ossl_store_register_init.exit.thread:             ; preds = %2, %ossl_store_register_init.exit
  %7 = phi ptr [ %3, %2 ], [ %6, %ossl_store_register_init.exit ]
  tail call void @OPENSSL_LH_doall_arg_thunk(ptr noundef nonnull %7, ptr noundef nonnull @lh_OSSL_STORE_LOADER_doall_void_thunk, ptr noundef %0, ptr noundef %1) #9
  br label %8

8:                                                ; preds = %ossl_store_register_init.exit.thread, %ossl_store_register_init.exit
  ret i32 1
}